; ModuleID = '28/757.c'
source_filename = "28/757.c"
target datalayout = "e-m:e-p270:32:32-p271:32:32-p272:64:64-i64:64-f80:128-n8:16:32:64-S128"
target triple = "x86_64-pc-linux-gnu"

@.str = private unnamed_addr constant [4 x i8] c"%d,\00", align 1
@.str.1 = private unnamed_addr constant [4 x i8] c"%d\0A\00", align 1

; Function Attrs: noinline nounwind uwtable
define dso_local void @main() #0 {
  %1 = alloca i32, align 4
  %2 = alloca i32, align 4
  %3 = alloca i32, align 4
  %4 = alloca [10000 x i8], align 16
  store i32 0, i32* %2, align 4
  %5 = getelementptr inbounds [10000 x i8], [10000 x i8]* %4, i64 0, i64 0
  %6 = call i32 (i8*, ...) bitcast (i32 (...)* @gets to i32 (i8*, ...)*)(i8* %5)
  %7 = getelementptr inbounds [10000 x i8], [10000 x i8]* %4, i64 0, i64 0
  %8 = call i64 @strlen(i8* %7) #3
  %9 = trunc i64 %8 to i32
  store i32 %9, i32* %3, align 4
  store i32 0, i32* %1, align 4
  br label %10

10:                                               ; preds = %59, %0
  %11 = load i32, i32* %1, align 4
  %12 = load i32, i32* %3, align 4
  %13 = icmp sle i32 %11, %12
  br i1 %13, label %14, label %62

14:                                               ; preds = %10
  %15 = load i32, i32* %1, align 4
  %16 = sext i32 %15 to i64
  %17 = getelementptr inbounds [10000 x i8], [10000 x i8]* %4, i64 0, i64 %16
  %18 = load i8, i8* %17, align 1
  %19 = sext i8 %18 to i32
  %20 = icmp ne i32 %19, 32
  br i1 %20, label %21, label %31

21:                                               ; preds = %14
  %22 = load i32, i32* %1, align 4
  %23 = sext i32 %22 to i64
  %24 = getelementptr inbounds [10000 x i8], [10000 x i8]* %4, i64 0, i64 %23
  %25 = load i8, i8* %24, align 1
  %26 = sext i8 %25 to i32
  %27 = icmp ne i32 %26, 0
  br i1 %27, label %28, label %31

28:                                               ; preds = %21
  %29 = load i32, i32* %2, align 4
  %30 = add nsw i32 %29, 1
  store i32 %30, i32* %2, align 4
  br label %58

31:                                               ; preds = %21, %14
  %32 = load i32, i32* %1, align 4
  %33 = sext i32 %32 to i64
  %34 = getelementptr inbounds [10000 x i8], [10000 x i8]* %4, i64 0, i64 %33
  %35 = load i8, i8* %34, align 1
  %36 = sext i8 %35 to i32
  %37 = icmp eq i32 %36, 32
  br i1 %37, label %38, label %46

38:                                               ; preds = %31
  %39 = load i32, i32* %2, align 4
  %40 = icmp eq i32 %39, 0
  br i1 %40, label %41, label %42

41:                                               ; preds = %38
  br label %59

42:                                               ; preds = %38
  %43 = load i32, i32* %2, align 4
  %44 = call i32 (i8*, ...) @printf(i8* getelementptr inbounds ([4 x i8], [4 x i8]* @.str, i64 0, i64 0), i32 %43)
  store i32 0, i32* %2, align 4
  br label %45

45:                                               ; preds = %42
  br label %57

46:                                               ; preds = %31
  %47 = load i32, i32* %1, align 4
  %48 = sext i32 %47 to i64
  %49 = getelementptr inbounds [10000 x i8], [10000 x i8]* %4, i64 0, i64 %48
  %50 = load i8, i8* %49, align 1
  %51 = sext i8 %50 to i32
  %52 = icmp eq i32 %51, 0
  br i1 %52, label %53, label %56

53:                                               ; preds = %46
  %54 = load i32, i32* %2, align 4
  %55 = call i32 (i8*, ...) @printf(i8* getelementptr inbounds ([4 x i8], [4 x i8]* @.str.1, i64 0, i64 0), i32 %54)
  br label %56

56:                                               ; preds = %53, %46
  br label %57

57:                                               ; preds = %56, %45
  br label %58

58:                                               ; preds = %57, %28
  br label %59

59:                                               ; preds = %58, %41
  %60 = load i32, i32* %1, align 4
  %61 = add nsw i32 %60, 1
  store i32 %61, i32* %1, align 4
  br label %10

62:                                               ; preds = %10
  ret void
}

declare dso_local i32 @gets(...) #1

; Function Attrs: nounwind readonly
declare dso_local i64 @strlen(i8*) #2

declare dso_local i32 @printf(i8*, ...) #1


!llvm.module.flags = !{!0}
!llvm.ident = !{!1}

!0 = !{i32 1, !"wchar_size", i32 4}
!1 = !{!"clang version 10.0.0-4ubuntu1 "}
